; Function Attrs: mustprogress uwtable
define hidden void @_ZN4lean14update_bindingERKNS_4exprES2_S2_NS_11binder_infoE(ptr dead_on_unwind noalias writable writeonly sret(%"class.lean::expr") align 8 captures(none) initializes((0, 8)) %0, ptr noundef nonnull readonly align 8 captures(none) dereferenceable(8) %1, ptr noundef nonnull readonly align 8 captures(none) dereferenceable(8) %2, ptr noundef nonnull readonly align 8 captures(none) dereferenceable(8) %3, i32 noundef %4) local_unnamed_addr #0 {
  %6 = load ptr, ptr %1, align 8, !tbaa !10
  %7 = getelementptr inbounds nuw i8, ptr %6, i64 16
  %8 = load ptr, ptr %7, align 8, !tbaa !10
  %9 = load ptr, ptr %2, align 8, !tbaa !10
  %10 = icmp eq ptr %8, %9
  br i1 %10, label %11, label %28

11:                                               ; preds = %5
  %12 = getelementptr inbounds nuw i8, ptr %6, i64 24
  %13 = load ptr, ptr %12, align 8, !tbaa !10
  %14 = load ptr, ptr %3, align 8, !tbaa !10
  %15 = icmp eq ptr %13, %14
  br i1 %15, label %16, label %28

16:                                               ; preds = %11
  %17 = ptrtoint ptr %6 to i64
  %18 = and i64 %17, 1
  %.not.i.i.i = icmp eq i64 %18, 0
  br i1 %.not.i.i.i, label %19, label %_ZN4lean12binding_infoERKNS_4exprE.exit

19:                                               ; preds = %16
  %.val.i.i.i.i = load i32, ptr %6, align 4, !tbaa !21
  %20 = icmp sgt i32 %.val.i.i.i.i, 0
  br i1 %20, label %21, label %23, !prof !24

21:                                               ; preds = %19
  %22 = add nuw nsw i32 %.val.i.i.i.i, 1
  store i32 %22, ptr %6, align 4, !tbaa !21
  br label %_ZN4lean12binding_infoERKNS_4exprE.exit

23:                                               ; preds = %19
  %.not.i.i.i.i = icmp eq i32 %.val.i.i.i.i, 0
  br i1 %.not.i.i.i.i, label %_ZN4lean12binding_infoERKNS_4exprE.exit, label %24

24:                                               ; preds = %23
  tail call void @lean_inc_ref_cold(ptr noundef nonnull %6)
  %.pre.i.i = load ptr, ptr %1, align 8, !tbaa !10
  br label %_ZN4lean12binding_infoERKNS_4exprE.exit

_ZN4lean12binding_infoERKNS_4exprE.exit:          ; preds = %16, %21, %23, %24
  %25 = phi ptr [ %6, %16 ], [ %6, %21 ], [ %6, %23 ], [ %.pre.i.i, %24 ]
  %26 = tail call zeroext i8 @lean_expr_binder_info(ptr noundef %25)
  %27 = zext i8 %26 to i32
  %.not = icmp eq i32 %4, %27
  %.pre = load ptr, ptr %1, align 8, !tbaa !10
  br i1 %.not, label %35, label %28

28:                                               ; preds = %_ZN4lean12binding_infoERKNS_4exprE.exit, %11, %5
  %29 = phi ptr [ %.pre, %_ZN4lean12binding_infoERKNS_4exprE.exit ], [ %6, %11 ], [ %6, %5 ]
  %30 = getelementptr i8, ptr %29, i64 4
  %.val.i.i.i = load i32, ptr %30, align 4
  %31 = getelementptr inbounds nuw i8, ptr %29, i64 8
  %.mask = and i32 %.val.i.i.i, -16777216
  %32 = icmp eq i32 %.mask, 117440512
  br i1 %32, label %33, label %34

33:                                               ; preds = %28
  tail call void @_ZN4lean5mk_piERKNS_4nameERKNS_4exprES5_NS_11binder_infoE(ptr dead_on_unwind writable sret(%"class.lean::expr") align 8 %0, ptr noundef nonnull align 8 dereferenceable(8) %31, ptr noundef nonnull align 8 dereferenceable(8) %2, ptr noundef nonnull align 8 dereferenceable(8) %3, i32 noundef %4)
  br label %_ZN4lean10mk_bindingENS_9expr_kindERKNS_4nameERKNS_4exprES6_NS_11binder_infoE.exit

34:                                               ; preds = %28
  tail call void @_ZN4lean9mk_lambdaERKNS_4nameERKNS_4exprES5_NS_11binder_infoE(ptr dead_on_unwind writable sret(%"class.lean::expr") align 8 %0, ptr noundef nonnull align 8 dereferenceable(8) %31, ptr noundef nonnull align 8 dereferenceable(8) %2, ptr noundef nonnull align 8 dereferenceable(8) %3, i32 noundef %4)
  br label %_ZN4lean10mk_bindingENS_9expr_kindERKNS_4nameERKNS_4exprES6_NS_11binder_infoE.exit

35:                                               ; preds = %_ZN4lean12binding_infoERKNS_4exprE.exit
  store ptr %.pre, ptr %0, align 8, !tbaa !10
  %36 = ptrtoint ptr %.pre to i64
  %37 = and i64 %36, 1
  %.not.i.i.i11 = icmp eq i64 %37, 0
  br i1 %.not.i.i.i11, label %38, label %_ZN4lean10mk_bindingENS_9expr_kindERKNS_4nameERKNS_4exprES6_NS_11binder_infoE.exit

38:                                               ; preds = %35
  %.val.i.i.i.i12 = load i32, ptr %.pre, align 4, !tbaa !21
  %39 = icmp sgt i32 %.val.i.i.i.i12, 0
  br i1 %39, label %40, label %42, !prof !24

40:                                               ; preds = %38
  %41 = add nuw nsw i32 %.val.i.i.i.i12, 1
  store i32 %41, ptr %.pre, align 4, !tbaa !21
  br label %_ZN4lean10mk_bindingENS_9expr_kindERKNS_4nameERKNS_4exprES6_NS_11binder_infoE.exit

42:                                               ; preds = %38
  %.not.i.i.i.i13 = icmp eq i32 %.val.i.i.i.i12, 0
  br i1 %.not.i.i.i.i13, label %_ZN4lean10mk_bindingENS_9expr_kindERKNS_4nameERKNS_4exprES6_NS_11binder_infoE.exit, label %43

43:                                               ; preds = %42
  tail call void @lean_inc_ref_cold(ptr noundef nonnull %.pre)
  br label %_ZN4lean10mk_bindingENS_9expr_kindERKNS_4nameERKNS_4exprES6_NS_11binder_infoE.exit

_ZN4lean10mk_bindingENS_9expr_kindERKNS_4nameERKNS_4exprES6_NS_11binder_infoE.exit: ; preds = %43, %42, %40, %35, %34, %33
  ret void
}